(lp0
(lp1
F0.31648808288476105
aF0.771722108657141
aa(lp2
F0.3842764970778765
aF0.7770633282648356
aa(lp3
F0.28278661490672247
aF0.7991055092203274
aa(lp4
F0.24513053927769876
aF0.8127829213855362
aa(lp5
F0.2517899367912316
aF0.8146090531381888
aa(lp6
F0.24950572873870694
aF0.8182556012857435
aa(lp7
F0.23748530514119257
aF0.8234853685638052
aa(lp8
F0.2892016018328189
aF0.8131658664619645
aa(lp9
F0.22494679462415038
aF0.8289294689444031
aa(lp10
F0.2323248433978878
aF0.8300382938241109
aa.